; Function Attrs: mustprogress uwtable
define dso_local void @_ZN6spdlog15register_loggerESt10shared_ptrINS_6loggerEE(ptr noundef captures(none) %0) local_unnamed_addr #6 personality ptr @__gxx_personality_v0 {
  %2 = alloca %"class.std::shared_ptr.36", align 8
  %3 = load atomic i8, ptr @_ZGVZN6spdlog7details8registry8instanceEvE10s_instance acquire, align 8
  %4 = icmp eq i8 %3, 0
  br i1 %4, label %5, label %_ZN6spdlog7details8registry8instanceEv.exit, !prof !79

5:                                                ; preds = %1
  %6 = tail call i32 @__cxa_guard_acquire(ptr nonnull @_ZGVZN6spdlog7details8registry8instanceEvE10s_instance) #37
  %.not.i = icmp eq i32 %6, 0
  br i1 %.not.i, label %_ZN6spdlog7details8registry8instanceEv.exit, label %7

7:                                                ; preds = %5
  invoke void @_ZN6spdlog7details8registryC2Ev(ptr noundef nonnull align 8 dereferenceable(336) @_ZZN6spdlog7details8registry8instanceEvE10s_instance)
          to label %8 unwind label %10

8:                                                ; preds = %7
  %9 = tail call i32 @__cxa_atexit(ptr nonnull @_ZN6spdlog7details8registryD2Ev, ptr nonnull @_ZZN6spdlog7details8registry8instanceEvE10s_instance, ptr nonnull @__dso_handle) #37
  tail call void @__cxa_guard_release(ptr nonnull @_ZGVZN6spdlog7details8registry8instanceEvE10s_instance) #37
  br label %_ZN6spdlog7details8registry8instanceEv.exit

common.resume:                                    ; preds = %39, %10
  %common.resume.op = phi { ptr, i32 } [ %11, %10 ], [ %40, %39 ]
  resume { ptr, i32 } %common.resume.op

10:                                               ; preds = %7
  %11 = landingpad { ptr, i32 }
          cleanup
  tail call void @__cxa_guard_abort(ptr nonnull @_ZGVZN6spdlog7details8registry8instanceEvE10s_instance) #37
  br label %common.resume

_ZN6spdlog7details8registry8instanceEv.exit:      ; preds = %1, %5, %8
  %12 = load ptr, ptr %0, align 8, !tbaa !158
  store ptr %12, ptr %2, align 8, !tbaa !158
  %13 = getelementptr inbounds nuw i8, ptr %2, i64 8
  %14 = getelementptr inbounds nuw i8, ptr %0, i64 8
  %15 = load ptr, ptr %14, align 8, !tbaa !151
  store ptr null, ptr %14, align 8, !tbaa !151
  store ptr %15, ptr %13, align 8, !tbaa !151
  store ptr null, ptr %0, align 8, !tbaa !158
  invoke void @_ZN6spdlog7details8registry15register_loggerESt10shared_ptrINS_6loggerEE(ptr noundef nonnull align 8 dereferenceable(336) @_ZZN6spdlog7details8registry8instanceEvE10s_instance, ptr noundef nonnull %2)
          to label %16 unwind label %39

16:                                               ; preds = %_ZN6spdlog7details8registry8instanceEv.exit
  %17 = load ptr, ptr %13, align 8, !tbaa !151
  %.not.i.i = icmp eq ptr %17, null
  br i1 %.not.i.i, label %_ZNSt12__shared_ptrIN6spdlog6loggerELN9__gnu_cxx12_Lock_policyE2EED2Ev.exit, label %18

18:                                               ; preds = %16
  %19 = getelementptr inbounds nuw i8, ptr %17, i64 8
  %20 = load atomic i64, ptr %19 acquire, align 8
  %21 = icmp eq i64 %20, 4294967297
  %22 = trunc i64 %20 to i32
  br i1 %21, label %23, label %31

23:                                               ; preds = %18
  store i32 0, ptr %19, align 8, !tbaa !148
  %24 = getelementptr inbounds nuw i8, ptr %17, i64 12
  store i32 0, ptr %24, align 4, !tbaa !150
  %25 = load ptr, ptr %17, align 8, !tbaa !9
  %26 = getelementptr inbounds nuw i8, ptr %25, i64 16
  %27 = load ptr, ptr %26, align 8
  tail call void %27(ptr noundef nonnull align 8 dereferenceable(16) %17) #37
  %28 = load ptr, ptr %17, align 8, !tbaa !9
  %29 = getelementptr inbounds nuw i8, ptr %28, i64 24
  %30 = load ptr, ptr %29, align 8
  tail call void %30(ptr noundef nonnull align 8 dereferenceable(16) %17) #37
  br label %_ZNSt12__shared_ptrIN6spdlog6loggerELN9__gnu_cxx12_Lock_policyE2EED2Ev.exit

31:                                               ; preds = %18
  %32 = load i8, ptr @__libc_single_threaded, align 1, !tbaa !17
  %.not.i.i.i = icmp eq i8 %32, 0
  br i1 %.not.i.i.i, label %35, label %33

33:                                               ; preds = %31
  %34 = add nsw i32 %22, -1
  store i32 %34, ptr %19, align 4, !tbaa !54
  br label %_ZN9__gnu_cxx27__exchange_and_add_dispatchEPii.exit.i.i.i

35:                                               ; preds = %31
  %36 = atomicrmw volatile add ptr %19, i32 -1 acq_rel, align 4
  br label %_ZN9__gnu_cxx27__exchange_and_add_dispatchEPii.exit.i.i.i

_ZN9__gnu_cxx27__exchange_and_add_dispatchEPii.exit.i.i.i: ; preds = %35, %33
  %.0.i.i.i.i = phi i32 [ %22, %33 ], [ %36, %35 ]
  %37 = icmp eq i32 %.0.i.i.i.i, 1
  br i1 %37, label %38, label %_ZNSt12__shared_ptrIN6spdlog6loggerELN9__gnu_cxx12_Lock_policyE2EED2Ev.exit, !prof !27

38:                                               ; preds = %_ZN9__gnu_cxx27__exchange_and_add_dispatchEPii.exit.i.i.i
  tail call void @_ZNSt16_Sp_counted_baseILN9__gnu_cxx12_Lock_policyE2EE24_M_release_last_use_coldEv(ptr noundef nonnull align 8 dereferenceable(16) %17) #37
  br label %_ZNSt12__shared_ptrIN6spdlog6loggerELN9__gnu_cxx12_Lock_policyE2EED2Ev.exit

_ZNSt12__shared_ptrIN6spdlog6loggerELN9__gnu_cxx12_Lock_policyE2EED2Ev.exit: ; preds = %16, %23, %_ZN9__gnu_cxx27__exchange_and_add_dispatchEPii.exit.i.i.i, %38
  ret void

39:                                               ; preds = %_ZN6spdlog7details8registry8instanceEv.exit
  %40 = landingpad { ptr, i32 }
          cleanup
  call void @_ZNSt12__shared_ptrIN6spdlog6loggerELN9__gnu_cxx12_Lock_policyE2EED2Ev(ptr noundef nonnull align 8 dereferenceable(16) %2) #37
  br label %common.resume
}